; Function Attrs: nounwind uwtable
define noalias noundef ptr @Dch_ManCreate(ptr noundef %0, ptr noundef %1) local_unnamed_addr #0 {
  %calloc = tail call dereferenceable_or_null(224) ptr @calloc(i64 1, i64 224)
  store ptr %1, ptr %calloc, align 8, !tbaa !3
  %3 = getelementptr inbounds nuw i8, ptr %calloc, i64 8
  store ptr %0, ptr %3, align 8, !tbaa !17
  tail call void @Aig_ManFanoutStart(ptr noundef %0) #10
  %4 = getelementptr inbounds nuw i8, ptr %calloc, i64 48
  store i32 1, ptr %4, align 8, !tbaa !18
  %5 = getelementptr i8, ptr %0, i64 32
  %.val = load ptr, ptr %5, align 8, !tbaa !19
  %6 = getelementptr i8, ptr %.val, i64 4
  %.val.val = load i32, ptr %6, align 4, !tbaa !28
  %7 = sext i32 %.val.val to i64
  %8 = tail call noalias ptr @calloc(i64 noundef %7, i64 noundef 4) #11
  %9 = getelementptr inbounds nuw i8, ptr %calloc, i64 56
  store ptr %8, ptr %9, align 8, !tbaa !30
  %10 = tail call noalias dereferenceable_or_null(16) ptr @malloc(i64 noundef 16) #12
  %11 = getelementptr inbounds nuw i8, ptr %10, i64 4
  store i32 0, ptr %11, align 4, !tbaa !28
  store i32 1000, ptr %10, align 8, !tbaa !31
  %12 = tail call noalias dereferenceable_or_null(8000) ptr @malloc(i64 noundef 8000) #12
  %13 = getelementptr inbounds nuw i8, ptr %10, i64 8
  store ptr %12, ptr %13, align 8, !tbaa !32
  %14 = getelementptr inbounds nuw i8, ptr %calloc, i64 64
  store ptr %10, ptr %14, align 8, !tbaa !33
  %15 = tail call noalias dereferenceable_or_null(16) ptr @malloc(i64 noundef 16) #12
  %16 = getelementptr inbounds nuw i8, ptr %15, i64 4
  store i32 0, ptr %16, align 4, !tbaa !28
  store i32 100, ptr %15, align 8, !tbaa !31
  %17 = tail call noalias dereferenceable_or_null(800) ptr @malloc(i64 noundef 800) #12
  %18 = getelementptr inbounds nuw i8, ptr %15, i64 8
  store ptr %17, ptr %18, align 8, !tbaa !32
  %19 = getelementptr inbounds nuw i8, ptr %calloc, i64 80
  store ptr %15, ptr %19, align 8, !tbaa !34
  %20 = tail call noalias dereferenceable_or_null(16) ptr @malloc(i64 noundef 16) #12
  %21 = getelementptr inbounds nuw i8, ptr %20, i64 4
  store i32 0, ptr %21, align 4, !tbaa !28
  store i32 1000, ptr %20, align 8, !tbaa !31
  %22 = tail call noalias dereferenceable_or_null(8000) ptr @malloc(i64 noundef 8000) #12
  %23 = getelementptr inbounds nuw i8, ptr %20, i64 8
  store ptr %22, ptr %23, align 8, !tbaa !32
  %24 = getelementptr inbounds nuw i8, ptr %calloc, i64 88
  store ptr %20, ptr %24, align 8, !tbaa !35
  %25 = tail call noalias dereferenceable_or_null(16) ptr @malloc(i64 noundef 16) #12
  %26 = getelementptr inbounds nuw i8, ptr %25, i64 4
  store i32 0, ptr %26, align 4, !tbaa !28
  store i32 1000, ptr %25, align 8, !tbaa !31
  %27 = tail call noalias dereferenceable_or_null(8000) ptr @malloc(i64 noundef 8000) #12
  %28 = getelementptr inbounds nuw i8, ptr %25, i64 8
  store ptr %27, ptr %28, align 8, !tbaa !32
  %29 = getelementptr inbounds nuw i8, ptr %calloc, i64 96
  store ptr %25, ptr %29, align 8, !tbaa !36
  %30 = tail call noalias ptr @calloc(i64 noundef %7, i64 noundef 8) #11
  %31 = getelementptr inbounds nuw i8, ptr %calloc, i64 32
  store ptr %30, ptr %31, align 8, !tbaa !37
  ret ptr %calloc
}